; Function Attrs: nounwind uwtable
define ptr @EVP_MD_CTX_dup(ptr noundef %0) local_unnamed_addr #0 {
  %2 = tail call noalias ptr @CRYPTO_zalloc(i64 noundef 72, ptr noundef nonnull @.str, i32 noundef 131) #8
  %.not = icmp eq ptr %2, null
  br i1 %.not, label %10, label %3

3:                                                ; preds = %1
  %4 = tail call i32 @EVP_MD_CTX_copy_ex(ptr noundef nonnull %2, ptr noundef %0)
  %.not6 = icmp eq i32 %4, 0
  br i1 %.not6, label %5, label %10

5:                                                ; preds = %3
  %6 = tail call i32 @EVP_MD_CTX_test_flags(ptr noundef nonnull %2, i32 noundef 1024) #8
  %.not.i.i.i = icmp eq i32 %6, 0
  br i1 %.not.i.i.i, label %7, label %EVP_MD_CTX_free.exit

7:                                                ; preds = %5
  %8 = getelementptr inbounds nuw i8, ptr %2, i64 40
  %9 = load ptr, ptr %8, align 8, !tbaa !26
  tail call void @EVP_PKEY_CTX_free(ptr noundef %9) #8
  store ptr null, ptr %8, align 8, !tbaa !26
  br label %EVP_MD_CTX_free.exit

EVP_MD_CTX_free.exit:                             ; preds = %5, %7
  tail call void @evp_md_ctx_clear_digest(ptr noundef nonnull %2, i32 noundef 0, i32 noundef 0)
  tail call void @OPENSSL_cleanse(ptr noundef nonnull %2, i64 noundef 72) #8
  tail call void @CRYPTO_free(ptr noundef nonnull %2, ptr noundef nonnull @.str, i32 noundef 140) #8
  br label %10

10:                                               ; preds = %EVP_MD_CTX_free.exit, %3, %1
  %.0 = phi ptr [ %2, %3 ], [ null, %EVP_MD_CTX_free.exit ], [ null, %1 ]
  ret ptr %.0
}